target datalayout = "e-m:e-p270:32:32-p271:32:32-p272:64:64-i64:64-i128:128-f80:128-n8:16:32:64-S128"
target triple = "x86_64-pc-linux-gnu"

%struct.FT_GlyphRec_ = type { ptr, ptr, i32, %struct.FT_Vector_ }
%struct.FT_Vector_ = type { i64, i64 }
%struct.FT_Outline_ = type { i16, i16, ptr, ptr, ptr, i32 }
%struct.FT_OutlineGlyphRec_ = type { %struct.FT_GlyphRec_, %struct.FT_Outline_ }

; Function Attrs: nounwind uwtable
define internal i32 @ft_outline_glyph_copy(ptr noundef %0, ptr noundef %1) #0 {
  %3 = alloca ptr, align 8
  %4 = alloca ptr, align 8
  %5 = alloca ptr, align 8
  %6 = alloca ptr, align 8
  %7 = alloca i32, align 4
  %8 = alloca ptr, align 8
  store ptr %0, ptr %3, align 8, !tbaa !3
  store ptr %1, ptr %4, align 8, !tbaa !3
  call void @llvm.lifetime.start.p0(i64 8, ptr %5) #6
  %9 = load ptr, ptr %3, align 8, !tbaa !3
  store ptr %9, ptr %5, align 8, !tbaa !58
  call void @llvm.lifetime.start.p0(i64 8, ptr %6) #6
  %10 = load ptr, ptr %4, align 8, !tbaa !3
  store ptr %10, ptr %6, align 8, !tbaa !58
  call void @llvm.lifetime.start.p0(i64 4, ptr %7) #6
  call void @llvm.lifetime.start.p0(i64 8, ptr %8) #6
  %11 = load ptr, ptr %5, align 8, !tbaa !58
  %12 = getelementptr inbounds nuw %struct.FT_GlyphRec_, ptr %11, i32 0, i32 0
  %13 = load ptr, ptr %12, align 8, !tbaa !14
  store ptr %13, ptr %8, align 8, !tbaa !20
  %14 = load ptr, ptr %8, align 8, !tbaa !20
  %15 = load ptr, ptr %5, align 8, !tbaa !58
  %16 = getelementptr inbounds nuw %struct.FT_OutlineGlyphRec_, ptr %15, i32 0, i32 1
  %17 = getelementptr inbounds nuw %struct.FT_Outline_, ptr %16, i32 0, i32 1
  %18 = load i16, ptr %17, align 2, !tbaa !64
  %19 = zext i16 %18 to i32
  %20 = load ptr, ptr %5, align 8, !tbaa !58
  %21 = getelementptr inbounds nuw %struct.FT_OutlineGlyphRec_, ptr %20, i32 0, i32 1
  %22 = getelementptr inbounds nuw %struct.FT_Outline_, ptr %21, i32 0, i32 0
  %23 = load i16, ptr %22, align 8, !tbaa !66
  %24 = zext i16 %23 to i32
  %25 = load ptr, ptr %6, align 8, !tbaa !58
  %26 = getelementptr inbounds nuw %struct.FT_OutlineGlyphRec_, ptr %25, i32 0, i32 1
  %27 = call i32 @FT_Outline_New(ptr noundef %14, i32 noundef %19, i32 noundef %24, ptr noundef %26)
  store i32 %27, ptr %7, align 4, !tbaa !12
  %28 = load i32, ptr %7, align 4, !tbaa !12
  %29 = icmp ne i32 %28, 0
  br i1 %29, label %36, label %30

30:                                               ; preds = %2
  %31 = load ptr, ptr %5, align 8, !tbaa !58
  %32 = getelementptr inbounds nuw %struct.FT_OutlineGlyphRec_, ptr %31, i32 0, i32 1
  %33 = load ptr, ptr %6, align 8, !tbaa !58
  %34 = getelementptr inbounds nuw %struct.FT_OutlineGlyphRec_, ptr %33, i32 0, i32 1
  %35 = call i32 @FT_Outline_Copy(ptr noundef %32, ptr noundef %34)
  br label %36

36:                                               ; preds = %30, %2
  %37 = load i32, ptr %7, align 4, !tbaa !12
  call void @llvm.lifetime.end.p0(i64 8, ptr %8) #6
  call void @llvm.lifetime.end.p0(i64 4, ptr %7) #6
  call void @llvm.lifetime.end.p0(i64 8, ptr %6) #6
  call void @llvm.lifetime.end.p0(i64 8, ptr %5) #6
  ret i32 %37
}