; Function Attrs: nounwind uwtable
define internal i32 @ft_outline_glyph_copy(ptr noundef %0, ptr noundef %1) #0 {
  %3 = load ptr, ptr %0, align 8, !tbaa !3
  %4 = getelementptr inbounds nuw i8, ptr %0, i64 40
  %5 = getelementptr inbounds nuw i8, ptr %0, i64 42
  %6 = load i16, ptr %5, align 2, !tbaa !52
  %7 = zext i16 %6 to i32
  %8 = load i16, ptr %4, align 8, !tbaa !54
  %9 = zext i16 %8 to i32
  %10 = getelementptr inbounds nuw i8, ptr %1, i64 40
  %11 = tail call i32 @FT_Outline_New(ptr noundef %3, i32 noundef %7, i32 noundef %9, ptr noundef nonnull %10) #6
  %.not = icmp eq i32 %11, 0
  br i1 %.not, label %12, label %14

12:                                               ; preds = %2
  %13 = tail call i32 @FT_Outline_Copy(ptr noundef nonnull %4, ptr noundef nonnull %10) #6
  br label %14

14:                                               ; preds = %12, %2
  ret i32 %11
}